; Function Attrs: nounwind uwtable
define dso_local { ptr, i64 } @_ZThn120_N4node6crypto7TLSWrap13OnStreamAllocEm(ptr nocapture noundef readonly %this, i64 noundef %suggested_size) unnamed_addr #6 align 2 {
entry:
  %size.i = alloca i64, align 8
  call void @llvm.lifetime.start.p0(i64 8, ptr nonnull %size.i)
  %ssl_.i = getelementptr inbounds i8, ptr %this, i64 48
  %0 = load ptr, ptr %ssl_.i, align 8
  %cmp.i.i.not.i = icmp eq ptr %0, null
  br i1 %cmp.i.i.not.i, label %do.body4.i, label %_ZN4node6crypto7TLSWrap13OnStreamAllocEm.exit

do.body4.i:                                       ; preds = %entry
  tail call void @_ZN4node6AssertERKNS_13AssertionInfoE(ptr noundef nonnull align 8 dereferenceable(24) @_ZZN4node6crypto7TLSWrap13OnStreamAllocEmE4args) #23
  tail call void @abort() #24
  unreachable

_ZN4node6crypto7TLSWrap13OnStreamAllocEm.exit:    ; preds = %entry
  store i64 %suggested_size, ptr %size.i, align 8
  %enc_in_.i = getelementptr inbounds i8, ptr %this, i64 184
  %1 = load ptr, ptr %enc_in_.i, align 8
  %call6.i = tail call noundef ptr @_ZN4node6crypto7NodeBIO7FromBIOEP6bio_st(ptr noundef %1) #23
  %call7.i = call noundef ptr @_ZN4node6crypto7NodeBIO12PeekWritableEPm(ptr noundef nonnull align 8 dereferenceable(64) %call6.i, ptr noundef nonnull %size.i) #23
  %2 = load i64, ptr %size.i, align 8
  %conv.i = trunc i64 %2 to i32
  %call8.i = call { ptr, i64 } @uv_buf_init(ptr noundef %call7.i, i32 noundef %conv.i) #23
  call void @llvm.lifetime.end.p0(i64 8, ptr nonnull %size.i)
  ret { ptr, i64 } %call8.i
}